; Function Attrs: mustprogress uwtable
define internal void @_ZN7rocksdb12_GLOBAL__N_115PosixFileSystem12GetFreeSpaceERKNSt7__cxx1112basic_stringIcSt11char_traitsIcESaIcEEERKNS_9IOOptionsEPmPNS_14IODebugContextE(ptr noalias sret(%"class.rocksdb::IOStatus") align 8 %agg.result, ptr nocapture nonnull readnone align 8 %this, ptr noundef nonnull align 8 dereferenceable(32) %fname, ptr nocapture nonnull readnone align 8 %0, ptr nocapture noundef writeonly %free_space, ptr nocapture readnone %1) unnamed_addr #5 align 2 personality ptr @__gxx_personality_v0 {
entry:
  %sbuf = alloca %struct.statvfs, align 8
  %ref.tmp = alloca %"class.std::__cxx11::basic_string", align 8
  %ref.tmp4 = alloca %"class.std::allocator", align 1
  %call = tail call noundef ptr @_ZNKSt7__cxx1112basic_stringIcSt11char_traitsIcESaIcEE5c_strEv(ptr noundef nonnull align 8 dereferenceable(32) %fname) #29
  %call3 = call i32 @statvfs(ptr noundef %call, ptr noundef nonnull %sbuf) #29
  %cmp = icmp slt i32 %call3, 0
  br i1 %cmp, label %if.then, label %if.end

if.then:                                          ; preds = %entry
  call void @_ZNSaIcEC1Ev(ptr noundef nonnull align 1 dereferenceable(1) %ref.tmp4) #29
  %call.i4 = invoke noundef ptr @_ZNSt7__cxx1112basic_stringIcSt11char_traitsIcESaIcEE13_M_local_dataEv(ptr noundef nonnull align 8 dereferenceable(32) %ref.tmp)
          to label %call.i.noexc unwind label %lpad

call.i.noexc:                                     ; preds = %if.then
  invoke void @_ZNSt7__cxx1112basic_stringIcSt11char_traitsIcESaIcEE12_Alloc_hiderC1EPcRKS3_(ptr noundef nonnull align 8 dereferenceable(8) %ref.tmp, ptr noundef %call.i4, ptr noundef nonnull align 1 dereferenceable(1) %ref.tmp4)
          to label %.noexc unwind label %lpad

.noexc:                                           ; preds = %call.i.noexc
  invoke void @_ZNSt7__cxx1112basic_stringIcSt11char_traitsIcESaIcEE12_M_constructIPKcEEvT_S8_St20forward_iterator_tag(ptr noundef nonnull align 8 dereferenceable(32) %ref.tmp, ptr noundef nonnull @.str.89, ptr noundef nonnull getelementptr inbounds ([20 x i8], ptr @.str.89, i64 0, i64 19))
          to label %invoke.cont unwind label %lpad.i

lpad.i:                                           ; preds = %.noexc
  %2 = landingpad { ptr, i32 }
          cleanup
  call void @_ZNSaIcED2Ev(ptr noundef nonnull align 1 dereferenceable(1) %ref.tmp) #29
  br label %ehcleanup

invoke.cont:                                      ; preds = %.noexc
  %call5 = tail call ptr @__errno_location() #34
  %3 = load i32, ptr %call5, align 4
  invoke void @_ZN7rocksdb7IOErrorERKNSt7__cxx1112basic_stringIcSt11char_traitsIcESaIcEEES7_i(ptr sret(%"class.rocksdb::IOStatus") align 8 %agg.result, ptr noundef nonnull align 8 dereferenceable(32) %ref.tmp, ptr noundef nonnull align 8 dereferenceable(32) %fname, i32 noundef %3)
          to label %invoke.cont7 unwind label %lpad6

invoke.cont7:                                     ; preds = %invoke.cont
  call void @_ZNSt7__cxx1112basic_stringIcSt11char_traitsIcESaIcEED1Ev(ptr noundef nonnull align 8 dereferenceable(32) %ref.tmp) #29
  call void @_ZNSaIcED1Ev(ptr noundef nonnull align 1 dereferenceable(1) %ref.tmp4) #29
  br label %return

lpad:                                             ; preds = %call.i.noexc, %if.then
  %4 = landingpad { ptr, i32 }
          cleanup
  br label %ehcleanup

lpad6:                                            ; preds = %invoke.cont
  %5 = landingpad { ptr, i32 }
          cleanup
  call void @_ZNSt7__cxx1112basic_stringIcSt11char_traitsIcESaIcEED1Ev(ptr noundef nonnull align 8 dereferenceable(32) %ref.tmp) #29
  br label %ehcleanup

ehcleanup:                                        ; preds = %lpad, %lpad.i, %lpad6
  %.pn = phi { ptr, i32 } [ %5, %lpad6 ], [ %4, %lpad ], [ %2, %lpad.i ]
  call void @_ZNSaIcED1Ev(ptr noundef nonnull align 1 dereferenceable(1) %ref.tmp4) #29
  resume { ptr, i32 } %.pn

if.end:                                           ; preds = %entry
  %call8 = tail call i32 @geteuid() #29
  %tobool.not = icmp eq i32 %call8, 0
  %6 = load i64, ptr %sbuf, align 8
  %..sroa.sel.v = select i1 %tobool.not, i64 24, i64 32
  %..sroa.sel = getelementptr inbounds i8, ptr %sbuf, i64 %..sroa.sel.v
  %7 = load i64, ptr %..sroa.sel, align 8
  %mul11 = mul i64 %7, %6
  store i64 %mul11, ptr %free_space, align 8
  store i8 0, ptr %agg.result, align 8, !alias.scope !121
  %subcode_.i.i.i.i = getelementptr inbounds i8, ptr %agg.result, i64 1
  store i8 0, ptr %subcode_.i.i.i.i, align 1, !alias.scope !121
  %sev_.i.i.i.i = getelementptr inbounds i8, ptr %agg.result, i64 2
  %state_.i.i.i.i = getelementptr inbounds i8, ptr %agg.result, i64 8
  store ptr null, ptr %state_.i.i.i.i, align 8, !alias.scope !121
  store i32 0, ptr %sev_.i.i.i.i, align 2, !alias.scope !121
  br label %return

return:                                           ; preds = %if.end, %invoke.cont7
  ret void
}